; Function Attrs: mustprogress uwtable
define hidden noundef nonnull align 8 dereferenceable(8) ptr @_ZNK4lean12recursor_val16get_major_inductEv(ptr noundef nonnull readonly align 8 captures(none) dereferenceable(8) %0) local_unnamed_addr #0 align 2 {
  %2 = load ptr, ptr %0, align 8, !tbaa !3
  %3 = getelementptr inbounds nuw i8, ptr %2, i64 24
  %4 = load ptr, ptr %3, align 8, !tbaa !3
  %5 = ptrtoint ptr %4 to i64
  %6 = lshr i64 %5, 1
  %7 = trunc i64 %6 to i32
  %8 = getelementptr inbounds nuw i8, ptr %2, i64 40
  %9 = load ptr, ptr %8, align 8, !tbaa !3
  %10 = ptrtoint ptr %9 to i64
  %11 = lshr i64 %10, 1
  %12 = trunc i64 %11 to i32
  %13 = getelementptr inbounds nuw i8, ptr %2, i64 48
  %14 = load ptr, ptr %13, align 8, !tbaa !3
  %15 = ptrtoint ptr %14 to i64
  %16 = lshr i64 %15, 1
  %17 = trunc i64 %16 to i32
  %18 = getelementptr inbounds nuw i8, ptr %2, i64 32
  %19 = load ptr, ptr %18, align 8, !tbaa !3
  %20 = ptrtoint ptr %19 to i64
  %21 = lshr i64 %20, 1
  %22 = trunc i64 %21 to i32
  %23 = getelementptr inbounds nuw i8, ptr %2, i64 8
  %24 = add i32 %12, %7
  %25 = add i32 %24, %17
  %26 = add i32 %25, %22
  br label %27

27:                                               ; preds = %27, %1
  %.pn.in = phi ptr [ %23, %1 ], [ %.07, %27 ]
  %.0 = phi i32 [ 0, %1 ], [ %28, %27 ]
  %.pn = load ptr, ptr %.pn.in, align 8, !tbaa !3
  %.07 = getelementptr inbounds nuw i8, ptr %.pn, i64 24
  %28 = add i32 %.0, 1
  %exitcond.not = icmp eq i32 %.0, %26
  br i1 %exitcond.not, label %29, label %27, !llvm.loop !23

29:                                               ; preds = %27
  %30 = load ptr, ptr %.07, align 8, !tbaa !3
  %31 = getelementptr inbounds nuw i8, ptr %30, i64 16
  %32 = tail call noundef nonnull align 8 dereferenceable(8) ptr @_ZN4lean10get_app_fnERKNS_4exprE(ptr noundef nonnull align 8 dereferenceable(8) %31)
  %33 = load ptr, ptr %32, align 8, !tbaa !3
  %34 = getelementptr inbounds nuw i8, ptr %33, i64 8
  ret ptr %34
}